target datalayout = "e-m:e-p270:32:32-p271:32:32-p272:64:64-i64:64-i128:128-f80:128-n8:16:32:64-S128"
target triple = "x86_64-pc-linux-gnu"

%union.pthread_attr_t = type { i64, [48 x i8] }
%struct.GC_stack_base = type { ptr }

@GC_on_abort = global ptr @GC_default_on_abort, align 8
@GC_current_warn_proc = internal global ptr @GC_default_warn_proc, align 8
@.str.106 = private unnamed_addr constant [39 x i8] c"GC Warning: pthread_getattr_np failed\0A\00", align 1
@.str.107 = private unnamed_addr constant [29 x i8] c"pthread_attr_getstack failed\00", align 1

; Function Attrs: nounwind uwtable
define i32 @GC_get_stack_base(ptr noundef nonnull %0) #0 {
  %2 = alloca i32, align 4
  %3 = alloca ptr, align 8
  %4 = alloca %union.pthread_attr_t, align 8
  %5 = alloca i64, align 8
  store ptr %0, ptr %3, align 8
  %6 = call i64 @pthread_self() #23
  %7 = call i32 @pthread_getattr_np(i64 noundef %6, ptr noundef %4) #18
  %8 = icmp ne i32 %7, 0
  br i1 %8, label %9, label %11

9:                                                ; preds = %1
  %10 = load ptr, ptr @GC_current_warn_proc, align 8
  call void %10(ptr noundef @.str.106, i64 noundef 0)
  store i32 3, ptr %2, align 4
  br label %27

11:                                               ; preds = %1
  %12 = load ptr, ptr %3, align 8
  %13 = getelementptr inbounds %struct.GC_stack_base, ptr %12, i32 0, i32 0
  %14 = call i32 @pthread_attr_getstack(ptr noundef %4, ptr noundef %13, ptr noundef %5) #18
  %15 = icmp ne i32 %14, 0
  br i1 %15, label %16, label %18

16:                                               ; preds = %11
  %17 = load ptr, ptr @GC_on_abort, align 8
  call void %17(ptr noundef @.str.107)
  call void @abort() #20
  unreachable

18:                                               ; preds = %11
  %19 = call i32 @pthread_attr_destroy(ptr noundef %4) #18
  %20 = load ptr, ptr %3, align 8
  %21 = getelementptr inbounds %struct.GC_stack_base, ptr %20, i32 0, i32 0
  %22 = load ptr, ptr %21, align 8
  %23 = load i64, ptr %5, align 8
  %24 = getelementptr inbounds i8, ptr %22, i64 %23
  %25 = load ptr, ptr %3, align 8
  %26 = getelementptr inbounds %struct.GC_stack_base, ptr %25, i32 0, i32 0
  store ptr %24, ptr %26, align 8
  store i32 0, ptr %2, align 4
  br label %27

27:                                               ; preds = %18, %9
  %28 = load i32, ptr %2, align 4
  ret i32 %28
}