; Function Attrs: nounwind uwtable
define range(i32 0, 4) i32 @GC_get_stack_base(ptr noundef nonnull %0) local_unnamed_addr #1 {
  %2 = alloca %union.pthread_attr_t, align 8
  %3 = alloca i64, align 8
  %4 = tail call i64 @pthread_self() #48
  %5 = call i32 @pthread_getattr_np(i64 noundef %4, ptr noundef nonnull %2) #41
  %.not = icmp eq i32 %5, 0
  br i1 %.not, label %8, label %6

6:                                                ; preds = %1
  %7 = load ptr, ptr @GC_current_warn_proc, align 8
  call void %7(ptr noundef nonnull @.str.106, i64 noundef 0) #41
  br label %17

8:                                                ; preds = %1
  %9 = call i32 @pthread_attr_getstack(ptr noundef nonnull %2, ptr noundef nonnull %0, ptr noundef nonnull %3) #41
  %.not3 = icmp eq i32 %9, 0
  br i1 %.not3, label %12, label %10

10:                                               ; preds = %8
  %11 = load ptr, ptr @GC_on_abort, align 8
  call void %11(ptr noundef nonnull @.str.107) #41
  call void @abort() #47
  unreachable

12:                                               ; preds = %8
  %13 = call i32 @pthread_attr_destroy(ptr noundef nonnull %2) #41
  %14 = load ptr, ptr %0, align 8
  %15 = load i64, ptr %3, align 8
  %16 = getelementptr inbounds i8, ptr %14, i64 %15
  store ptr %16, ptr %0, align 8
  br label %17

17:                                               ; preds = %12, %6
  %.0 = phi i32 [ 3, %6 ], [ 0, %12 ]
  ret i32 %.0
}